; Function Attrs: mustprogress uwtable
define void @_ZNK3gmx9BiasState20initHistoryFromStateEPNS_14AwhBiasHistoryE(ptr noundef nonnull readonly align 8 captures(none) dereferenceable(240) %0, ptr noundef %1) local_unnamed_addr #3 align 2 personality ptr @__gxx_personality_v0 {
  %3 = getelementptr inbounds nuw i8, ptr %0, i64 40
  %4 = getelementptr inbounds nuw i8, ptr %0, i64 48
  %5 = load ptr, ptr %4, align 8, !tbaa !4
  %6 = load ptr, ptr %3, align 8, !tbaa !10
  %7 = ptrtoint ptr %5 to i64
  %8 = ptrtoint ptr %6 to i64
  %9 = sub i64 %7, %8
  %10 = sdiv exact i64 %9, 96
  %11 = getelementptr inbounds nuw i8, ptr %1, i64 8
  %12 = load ptr, ptr %11, align 8, !tbaa !264
  %13 = load ptr, ptr %1, align 8, !tbaa !267
  %14 = ptrtoint ptr %12 to i64
  %15 = ptrtoint ptr %13 to i64
  %16 = sub i64 %14, %15
  %17 = sdiv exact i64 %16, 96
  %18 = icmp ugt i64 %10, %17
  br i1 %18, label %19, label %21

19:                                               ; preds = %2
  %20 = sub nuw nsw i64 %10, %17
  tail call void @_ZNSt6vectorIN3gmx20AwhPointStateHistoryESaIS1_EE17_M_default_appendEm(ptr noundef nonnull align 8 dereferenceable(24) %1, i64 noundef %20)
  br label %_ZNSt6vectorIN3gmx20AwhPointStateHistoryESaIS1_EE6resizeEm.exit

21:                                               ; preds = %2
  %22 = icmp ult i64 %10, %17
  br i1 %22, label %23, label %_ZNSt6vectorIN3gmx20AwhPointStateHistoryESaIS1_EE6resizeEm.exit

23:                                               ; preds = %21
  %24 = getelementptr inbounds nuw i8, ptr %13, i64 %9
  %.not.i.i = icmp eq ptr %12, %24
  br i1 %.not.i.i, label %_ZNSt6vectorIN3gmx20AwhPointStateHistoryESaIS1_EE6resizeEm.exit, label %25

25:                                               ; preds = %23
  store ptr %24, ptr %11, align 8, !tbaa !264
  br label %_ZNSt6vectorIN3gmx20AwhPointStateHistoryESaIS1_EE6resizeEm.exit

_ZNSt6vectorIN3gmx20AwhPointStateHistoryESaIS1_EE6resizeEm.exit: ; preds = %19, %21, %23, %25
  ret void
}